; Function Attrs: nounwind uwtable
define internal fastcc range(i32 -5, 2) i32 @make_capture_history_tree(ptr noundef captures(none) %0, ptr noundef nonnull captures(none) %1, ptr noundef captures(address) %2, ptr noundef %3, ptr noundef readonly captures(none) %4) unnamed_addr #4 {
  %6 = load ptr, ptr %1, align 8, !tbaa !107
  %7 = icmp ult ptr %6, %2
  br i1 %7, label %.lr.ph, label %history_tree_add_child.exit

.lr.ph:                                           ; preds = %5
  %8 = getelementptr inbounds nuw i8, ptr %4, i64 64
  %9 = ptrtoint ptr %3 to i64
  %10 = getelementptr inbounds nuw i8, ptr %0, i64 16
  %11 = getelementptr inbounds nuw i8, ptr %0, i64 12
  %.phi.trans.insert.i = getelementptr inbounds nuw i8, ptr %0, i64 24
  br label %12

12:                                               ; preds = %.lr.ph, %86
  %.054 = phi ptr [ %6, %.lr.ph ], [ %87, %86 ]
  %13 = load i32, ptr %.054, align 8, !tbaa !110
  switch i32 %13, label %86 [
    i32 16, label %14
    i32 32816, label %74
  ]

14:                                               ; preds = %12
  %15 = getelementptr inbounds nuw i8, ptr %.054, i64 4
  %16 = load i32, ptr %15, align 4, !tbaa !128
  %17 = icmp slt i32 %16, 32
  br i1 %17, label %18, label %86

18:                                               ; preds = %14
  %19 = load i32, ptr %8, align 8, !tbaa !116
  %20 = shl nuw i32 1, %16
  %21 = and i32 %19, %20
  %.not = icmp eq i32 %21, 0
  br i1 %.not, label %86, label %22

22:                                               ; preds = %18
  %23 = tail call noalias dereferenceable_or_null(32) ptr @malloc(i64 noundef 32) #28
  %24 = icmp eq ptr %23, null
  br i1 %24, label %history_tree_add_child.exit, label %25

25:                                               ; preds = %22
  %26 = getelementptr inbounds nuw i8, ptr %23, i64 24
  store ptr null, ptr %26, align 8, !tbaa !29
  %27 = getelementptr inbounds nuw i8, ptr %23, i64 12
  store i32 0, ptr %27, align 4, !tbaa !32
  %28 = getelementptr inbounds nuw i8, ptr %23, i64 16
  store i32 0, ptr %28, align 8, !tbaa !33
  %29 = getelementptr inbounds nuw i8, ptr %23, i64 4
  store i32 -1, ptr %29, align 4, !tbaa !35
  %30 = getelementptr inbounds nuw i8, ptr %23, i64 8
  store i32 -1, ptr %30, align 8, !tbaa !36
  store i32 %16, ptr %23, align 8, !tbaa !34
  %31 = getelementptr inbounds nuw i8, ptr %.054, i64 8
  %32 = load ptr, ptr %31, align 8, !tbaa !56
  %33 = ptrtoint ptr %32 to i64
  %34 = sub i64 %33, %9
  %35 = trunc i64 %34 to i32
  store i32 %35, ptr %29, align 4, !tbaa !35
  %36 = load i32, ptr %10, align 8, !tbaa !33
  %37 = load i32, ptr %11, align 4, !tbaa !32
  %.not.i = icmp slt i32 %36, %37
  %.pre.i = load ptr, ptr %.phi.trans.insert.i, align 8, !tbaa !29
  br i1 %.not.i, label %59, label %38

38:                                               ; preds = %25
  %39 = icmp eq ptr %.pre.i, null
  br i1 %39, label %40, label %42

40:                                               ; preds = %38
  %41 = tail call noalias dereferenceable_or_null(64) ptr @malloc(i64 noundef 64) #28
  br label %47

42:                                               ; preds = %38
  %43 = shl nsw i32 %37, 1
  %44 = sext i32 %43 to i64
  %45 = shl nsw i64 %44, 3
  %46 = tail call ptr @realloc(ptr noundef nonnull %.pre.i, i64 noundef %45) #29
  br label %47

47:                                               ; preds = %42, %40
  %storemerge.i = phi ptr [ %46, %42 ], [ %41, %40 ]
  %.024.i = phi i32 [ %43, %42 ], [ 8, %40 ]
  store ptr %storemerge.i, ptr %.phi.trans.insert.i, align 8, !tbaa !29
  %48 = icmp eq ptr %storemerge.i, null
  br i1 %48, label %history_tree_add_child.exit, label %49

49:                                               ; preds = %47
  %50 = load i32, ptr %11, align 4, !tbaa !32
  %51 = icmp slt i32 %50, %.024.i
  br i1 %51, label %.lr.ph.preheader.i, label %._crit_edge.i

.lr.ph.preheader.i:                               ; preds = %49
  %52 = sext i32 %50 to i64
  %53 = shl nsw i64 %52, 3
  %scevgep.i = getelementptr i8, ptr %storemerge.i, i64 %53
  %54 = xor i32 %50, -1
  %55 = add i32 %.024.i, %54
  %56 = zext i32 %55 to i64
  %57 = shl nuw nsw i64 %56, 3
  %58 = add nuw nsw i64 %57, 8
  tail call void @llvm.memset.p0.i64(ptr noundef nonnull align 8 dereferenceable(1) %scevgep.i, i8 0, i64 %58, i1 false), !tbaa !37
  br label %._crit_edge.i

._crit_edge.i:                                    ; preds = %.lr.ph.preheader.i, %49
  store i32 %.024.i, ptr %11, align 4, !tbaa !32
  %.pre32.i = load i32, ptr %10, align 8, !tbaa !33
  br label %59

59:                                               ; preds = %25, %._crit_edge.i
  %60 = phi i32 [ %.pre32.i, %._crit_edge.i ], [ %36, %25 ]
  %61 = phi ptr [ %storemerge.i, %._crit_edge.i ], [ %.pre.i, %25 ]
  %62 = sext i32 %60 to i64
  %63 = getelementptr inbounds ptr, ptr %61, i64 %62
  store ptr %23, ptr %63, align 8, !tbaa !37
  %64 = add nsw i32 %60, 1
  store i32 %64, ptr %10, align 8, !tbaa !33
  %65 = getelementptr inbounds nuw i8, ptr %.054, i64 32
  store ptr %65, ptr %1, align 8, !tbaa !107
  %66 = tail call fastcc i32 @make_capture_history_tree(ptr noundef nonnull %23, ptr noundef %1, ptr noundef nonnull %2, ptr noundef %3, ptr noundef nonnull %4)
  %.not50 = icmp eq i32 %66, 0
  br i1 %.not50, label %67, label %history_tree_add_child.exit

67:                                               ; preds = %59
  %68 = load ptr, ptr %1, align 8, !tbaa !107
  %69 = getelementptr inbounds nuw i8, ptr %68, i64 8
  %70 = load ptr, ptr %69, align 8, !tbaa !56
  %71 = ptrtoint ptr %70 to i64
  %72 = sub i64 %71, %9
  %73 = trunc i64 %72 to i32
  store i32 %73, ptr %30, align 8, !tbaa !36
  br label %86

74:                                               ; preds = %12
  %75 = getelementptr inbounds nuw i8, ptr %.054, i64 4
  %76 = load i32, ptr %75, align 4, !tbaa !128
  %77 = load i32, ptr %0, align 8, !tbaa !34
  %78 = icmp eq i32 %76, %77
  br i1 %78, label %79, label %86

79:                                               ; preds = %74
  %80 = getelementptr inbounds nuw i8, ptr %.054, i64 8
  %81 = load ptr, ptr %80, align 8, !tbaa !56
  %82 = ptrtoint ptr %81 to i64
  %83 = sub i64 %82, %9
  %84 = trunc i64 %83 to i32
  %85 = getelementptr inbounds nuw i8, ptr %0, i64 8
  store i32 %84, ptr %85, align 8, !tbaa !36
  store ptr %.054, ptr %1, align 8, !tbaa !107
  br label %history_tree_add_child.exit

86:                                               ; preds = %12, %74, %14, %18, %67
  %.1 = phi ptr [ %68, %67 ], [ %.054, %18 ], [ %.054, %14 ], [ %.054, %74 ], [ %.054, %12 ]
  %87 = getelementptr inbounds nuw i8, ptr %.1, i64 32
  %88 = icmp ult ptr %87, %2
  br i1 %88, label %12, label %history_tree_add_child.exit, !llvm.loop !213

history_tree_add_child.exit:                      ; preds = %59, %86, %47, %22, %5, %79
  %.042 = phi i32 [ 0, %79 ], [ 1, %5 ], [ %66, %59 ], [ 1, %86 ], [ -5, %47 ], [ -5, %22 ]
  ret i32 %.042
}